target datalayout = "e-m:e-p270:32:32-p271:32:32-p272:64:64-i64:64-i128:128-f80:128-n8:16:32:64-S128"
target triple = "x86_64-pc-linux-gnu"

%struct.re_pattern_buffer = type { ptr, i32, i32, i32, i32, i32, i32, i32, i32, i32, i32, i32, i32, i32, ptr, ptr, ptr, ptr, i32, i32, i32, i32, i64, i64, i32, ptr, ptr, [256 x i8], ptr, ptr, i64, i64, i64, ptr }

; Function Attrs: alwaysinline nounwind
define internal ptr @memcpy.inline(ptr noalias nonnull %0, ptr noalias nonnull %1, i64 %2) #7 {
  %4 = alloca ptr, align 8
  %5 = alloca ptr, align 8
  %6 = alloca i64, align 8
  store ptr %0, ptr %4, align 8, !tbaa !36
  store ptr %1, ptr %5, align 8, !tbaa !36
  store i64 %2, ptr %6, align 8, !tbaa !14
  %7 = load ptr, ptr %4, align 8, !tbaa !36
  %8 = load ptr, ptr %5, align 8, !tbaa !36
  %9 = load i64, ptr %6, align 8, !tbaa !14
  %10 = load ptr, ptr %4, align 8, !tbaa !36
  %11 = call i64 @llvm.objectsize.i64.p0(ptr %10, i1 false, i1 true, i1 false)
  %12 = call ptr @__memcpy_chk(ptr noundef %7, ptr noundef %8, i64 noundef %9, i64 noundef %11) #11
  ret ptr %12
}

; Function Attrs: nounwind sspstrong uwtable
define internal i32 @add_option(ptr noundef %0, i32 noundef %1) #0 {
  %3 = alloca i32, align 4
  %4 = alloca ptr, align 8
  %5 = alloca i32, align 4
  %6 = alloca i32, align 4
  %7 = alloca ptr, align 8
  %8 = alloca i32, align 4
  store ptr %0, ptr %4, align 8, !tbaa !21
  store i32 %1, ptr %5, align 4, !tbaa !7
  br label %9

9:                                                ; preds = %2
  call void @llvm.lifetime.start.p0(i64 4, ptr %6) #11
  %10 = load ptr, ptr %4, align 8, !tbaa !21
  %11 = getelementptr inbounds nuw %struct.re_pattern_buffer, ptr %10, i32 0, i32 1
  %12 = load i32, ptr %11, align 8, !tbaa !55
  %13 = add i32 %12, 4
  store i32 %13, ptr %6, align 4, !tbaa !7
  %14 = load ptr, ptr %4, align 8, !tbaa !21
  %15 = getelementptr inbounds nuw %struct.re_pattern_buffer, ptr %14, i32 0, i32 2
  %16 = load i32, ptr %15, align 4, !tbaa !41
  %17 = load i32, ptr %6, align 4, !tbaa !7
  %18 = icmp ult i32 %16, %17
  br i1 %18, label %19, label %53

19:                                               ; preds = %9
  br label %20

20:                                               ; preds = %19
  call void @llvm.lifetime.start.p0(i64 8, ptr %7) #11
  br label %21

21:                                               ; preds = %26, %20
  %22 = load ptr, ptr %4, align 8, !tbaa !21
  %23 = getelementptr inbounds nuw %struct.re_pattern_buffer, ptr %22, i32 0, i32 2
  %24 = load i32, ptr %23, align 4, !tbaa !41
  %25 = mul i32 %24, 2
  store i32 %25, ptr %23, align 4, !tbaa !41
  br label %26

26:                                               ; preds = %21
  %27 = load ptr, ptr %4, align 8, !tbaa !21
  %28 = getelementptr inbounds nuw %struct.re_pattern_buffer, ptr %27, i32 0, i32 2
  %29 = load i32, ptr %28, align 4, !tbaa !41
  %30 = load i32, ptr %6, align 4, !tbaa !7
  %31 = icmp ult i32 %29, %30
  br i1 %31, label %21, label %32, !llvm.loop !299

32:                                               ; preds = %26
  %33 = load ptr, ptr %4, align 8, !tbaa !21
  %34 = getelementptr inbounds nuw %struct.re_pattern_buffer, ptr %33, i32 0, i32 0
  %35 = load ptr, ptr %34, align 8, !tbaa !23
  %36 = load ptr, ptr %4, align 8, !tbaa !21
  %37 = getelementptr inbounds nuw %struct.re_pattern_buffer, ptr %36, i32 0, i32 2
  %38 = load i32, ptr %37, align 4, !tbaa !41
  %39 = zext i32 %38 to i64
  %40 = call ptr @realloc(ptr noundef %35, i64 noundef %39) #12
  store ptr %40, ptr %7, align 8, !tbaa !35
  %41 = load ptr, ptr %7, align 8, !tbaa !35
  %42 = icmp eq ptr %41, null
  br i1 %42, label %43, label %44

43:                                               ; preds = %32
  store i32 -5, ptr %3, align 4
  store i32 1, ptr %8, align 4
  br label %48

44:                                               ; preds = %32
  %45 = load ptr, ptr %7, align 8, !tbaa !35
  %46 = load ptr, ptr %4, align 8, !tbaa !21
  %47 = getelementptr inbounds nuw %struct.re_pattern_buffer, ptr %46, i32 0, i32 0
  store ptr %45, ptr %47, align 8, !tbaa !23
  store i32 0, ptr %8, align 4
  br label %48

48:                                               ; preds = %44, %43
  call void @llvm.lifetime.end.p0(i64 8, ptr %7) #11
  %49 = load i32, ptr %8, align 4
  switch i32 %49, label %73 [
    i32 0, label %50
  ]

50:                                               ; preds = %48
  br label %51

51:                                               ; preds = %50
  br label %52

52:                                               ; preds = %51
  br label %53

53:                                               ; preds = %52, %9
  %54 = load ptr, ptr %4, align 8, !tbaa !21
  %55 = getelementptr inbounds nuw %struct.re_pattern_buffer, ptr %54, i32 0, i32 0
  %56 = load ptr, ptr %55, align 8, !tbaa !23
  %57 = load ptr, ptr %4, align 8, !tbaa !21
  %58 = getelementptr inbounds nuw %struct.re_pattern_buffer, ptr %57, i32 0, i32 1
  %59 = load i32, ptr %58, align 8, !tbaa !55
  %60 = zext i32 %59 to i64
  %61 = getelementptr i8, ptr %56, i64 %60
  %62 = call ptr @memcpy.inline(ptr noundef %61, ptr noundef %5, i64 noundef 4) #11
  %63 = load ptr, ptr %4, align 8, !tbaa !21
  %64 = getelementptr inbounds nuw %struct.re_pattern_buffer, ptr %63, i32 0, i32 1
  %65 = load i32, ptr %64, align 8, !tbaa !55
  %66 = load i32, ptr %6, align 4, !tbaa !7
  %67 = icmp ult i32 %65, %66
  br i1 %67, label %68, label %72

68:                                               ; preds = %53
  %69 = load i32, ptr %6, align 4, !tbaa !7
  %70 = load ptr, ptr %4, align 8, !tbaa !21
  %71 = getelementptr inbounds nuw %struct.re_pattern_buffer, ptr %70, i32 0, i32 1
  store i32 %69, ptr %71, align 8, !tbaa !55
  br label %72

72:                                               ; preds = %68, %53
  store i32 0, ptr %8, align 4
  br label %73

73:                                               ; preds = %72, %48
  call void @llvm.lifetime.end.p0(i64 4, ptr %6) #11
  %74 = load i32, ptr %8, align 4
  switch i32 %74, label %79 [
    i32 0, label %75
    i32 1, label %77
  ]

75:                                               ; preds = %73
  br label %76

76:                                               ; preds = %75
  store i32 0, ptr %3, align 4
  br label %77

77:                                               ; preds = %76, %73
  %78 = load i32, ptr %3, align 4
  ret i32 %78

79:                                               ; preds = %73
  unreachable
}