; Function Attrs: nounwind sspstrong uwtable
define internal fastcc range(i32 -5, 1) i32 @add_option(ptr noundef captures(none) %0, i32 noundef range(i32 0, 2) %1) unnamed_addr #4 {
  %3 = getelementptr inbounds nuw i8, ptr %0, i64 8
  %4 = load i32, ptr %3, align 8, !tbaa !115
  %5 = add i32 %4, 4
  %6 = getelementptr inbounds nuw i8, ptr %0, i64 12
  %7 = load i32, ptr %6, align 4, !tbaa !37
  %8 = icmp ult i32 %7, %5
  br i1 %8, label %.preheader, label %._crit_edge

._crit_edge:                                      ; preds = %2
  %.pre = load ptr, ptr %0, align 8, !tbaa !17
  br label %17

.preheader:                                       ; preds = %2, %.preheader
  %9 = phi i32 [ %10, %.preheader ], [ %7, %2 ]
  %10 = shl i32 %9, 1
  %11 = icmp ult i32 %10, %5
  br i1 %11, label %.preheader, label %12, !llvm.loop !297

12:                                               ; preds = %.preheader
  store i32 %10, ptr %6, align 4, !tbaa !37
  %13 = load ptr, ptr %0, align 8, !tbaa !17
  %14 = zext i32 %10 to i64
  %15 = tail call ptr @realloc(ptr noundef %13, i64 noundef %14) #21
  %.not = icmp eq ptr %15, null
  br i1 %.not, label %.critedge, label %16

16:                                               ; preds = %12
  store ptr %15, ptr %0, align 8, !tbaa !17
  %.pre28 = load i32, ptr %3, align 8, !tbaa !115
  br label %17

17:                                               ; preds = %._crit_edge, %16
  %18 = phi i32 [ %4, %._crit_edge ], [ %.pre28, %16 ]
  %19 = phi ptr [ %.pre, %._crit_edge ], [ %15, %16 ]
  %20 = zext i32 %18 to i64
  %21 = getelementptr i8, ptr %19, i64 %20
  store i32 %1, ptr %21, align 1
  %22 = load i32, ptr %3, align 8, !tbaa !115
  %23 = icmp ult i32 %22, %5
  br i1 %23, label %24, label %.critedge

24:                                               ; preds = %17
  store i32 %5, ptr %3, align 8, !tbaa !115
  br label %.critedge

.critedge:                                        ; preds = %17, %24, %12
  %25 = phi i32 [ -5, %12 ], [ 0, %24 ], [ 0, %17 ]
  ret i32 %25
}